; ModuleID = '64/2255.c'
source_filename = "64/2255.c"
target datalayout = "e-m:e-p270:32:32-p271:32:32-p272:64:64-i64:64-f80:128-n8:16:32:64-S128"
target triple = "x86_64-pc-linux-gnu"

@.str = private unnamed_addr constant [3 x i8] c"%d\00", align 1
@.str.1 = private unnamed_addr constant [9 x i8] c"%d %d %d\00", align 1
@.str.2 = private unnamed_addr constant [29 x i8] c"(%d,%d,%d)-(%d,%d,%d)=%.2lf\0A\00", align 1

; Function Attrs: noinline nounwind uwtable
define dso_local i32 @main() #0 {
  %1 = alloca i32, align 4
  %2 = alloca i32, align 4
  %3 = alloca i32, align 4
  %4 = alloca i32, align 4
  %5 = alloca i32, align 4
  %6 = alloca i32, align 4
  %7 = alloca [10 x i32], align 16
  %8 = alloca [10 x i32], align 16
  %9 = alloca [10 x i32], align 16
  %10 = alloca [45 x double], align 16
  %11 = alloca double, align 8
  %12 = alloca [45 x i32], align 16
  %13 = alloca [45 x i32], align 16
  store i32 0, i32* %1, align 4
  store i32 1, i32* %5, align 4
  %14 = call i32 (i8*, ...) @__isoc99_scanf(i8* getelementptr inbounds ([3 x i8], [3 x i8]* @.str, i64 0, i64 0), i32* %2)
  store i32 1, i32* %3, align 4
  br label %15

15:                                               ; preds = %30, %0
  %16 = load i32, i32* %3, align 4
  %17 = load i32, i32* %2, align 4
  %18 = icmp sle i32 %16, %17
  br i1 %18, label %19, label %33

19:                                               ; preds = %15
  %20 = load i32, i32* %3, align 4
  %21 = sext i32 %20 to i64
  %22 = getelementptr inbounds [10 x i32], [10 x i32]* %7, i64 0, i64 %21
  %23 = load i32, i32* %3, align 4
  %24 = sext i32 %23 to i64
  %25 = getelementptr inbounds [10 x i32], [10 x i32]* %8, i64 0, i64 %24
  %26 = load i32, i32* %3, align 4
  %27 = sext i32 %26 to i64
  %28 = getelementptr inbounds [10 x i32], [10 x i32]* %9, i64 0, i64 %27
  %29 = call i32 (i8*, ...) @__isoc99_scanf(i8* getelementptr inbounds ([9 x i8], [9 x i8]* @.str.1, i64 0, i64 0), i32* %22, i32* %25, i32* %28)
  br label %30

30:                                               ; preds = %19
  %31 = load i32, i32* %3, align 4
  %32 = add nsw i32 %31, 1
  store i32 %32, i32* %3, align 4
  br label %15

33:                                               ; preds = %15
  store i32 1, i32* %3, align 4
  br label %34

34:                                               ; preds = %125, %33
  %35 = load i32, i32* %3, align 4
  %36 = load i32, i32* %2, align 4
  %37 = sub nsw i32 %36, 1
  %38 = icmp sle i32 %35, %37
  br i1 %38, label %39, label %128

39:                                               ; preds = %34
  %40 = load i32, i32* %3, align 4
  %41 = add nsw i32 %40, 1
  store i32 %41, i32* %6, align 4
  br label %42

42:                                               ; preds = %121, %39
  %43 = load i32, i32* %6, align 4
  %44 = load i32, i32* %2, align 4
  %45 = icmp sle i32 %43, %44
  br i1 %45, label %46, label %124

46:                                               ; preds = %42
  %47 = load i32, i32* %3, align 4
  %48 = sext i32 %47 to i64
  %49 = getelementptr inbounds [10 x i32], [10 x i32]* %7, i64 0, i64 %48
  %50 = load i32, i32* %49, align 4
  %51 = load i32, i32* %6, align 4
  %52 = sext i32 %51 to i64
  %53 = getelementptr inbounds [10 x i32], [10 x i32]* %7, i64 0, i64 %52
  %54 = load i32, i32* %53, align 4
  %55 = sub nsw i32 %50, %54
  %56 = load i32, i32* %3, align 4
  %57 = sext i32 %56 to i64
  %58 = getelementptr inbounds [10 x i32], [10 x i32]* %7, i64 0, i64 %57
  %59 = load i32, i32* %58, align 4
  %60 = load i32, i32* %6, align 4
  %61 = sext i32 %60 to i64
  %62 = getelementptr inbounds [10 x i32], [10 x i32]* %7, i64 0, i64 %61
  %63 = load i32, i32* %62, align 4
  %64 = sub nsw i32 %59, %63
  %65 = mul nsw i32 %55, %64
  %66 = load i32, i32* %3, align 4
  %67 = sext i32 %66 to i64
  %68 = getelementptr inbounds [10 x i32], [10 x i32]* %8, i64 0, i64 %67
  %69 = load i32, i32* %68, align 4
  %70 = load i32, i32* %6, align 4
  %71 = sext i32 %70 to i64
  %72 = getelementptr inbounds [10 x i32], [10 x i32]* %8, i64 0, i64 %71
  %73 = load i32, i32* %72, align 4
  %74 = sub nsw i32 %69, %73
  %75 = load i32, i32* %3, align 4
  %76 = sext i32 %75 to i64
  %77 = getelementptr inbounds [10 x i32], [10 x i32]* %8, i64 0, i64 %76
  %78 = load i32, i32* %77, align 4
  %79 = load i32, i32* %6, align 4
  %80 = sext i32 %79 to i64
  %81 = getelementptr inbounds [10 x i32], [10 x i32]* %8, i64 0, i64 %80
  %82 = load i32, i32* %81, align 4
  %83 = sub nsw i32 %78, %82
  %84 = mul nsw i32 %74, %83
  %85 = add nsw i32 %65, %84
  %86 = load i32, i32* %3, align 4
  %87 = sext i32 %86 to i64
  %88 = getelementptr inbounds [10 x i32], [10 x i32]* %9, i64 0, i64 %87
  %89 = load i32, i32* %88, align 4
  %90 = load i32, i32* %6, align 4
  %91 = sext i32 %90 to i64
  %92 = getelementptr inbounds [10 x i32], [10 x i32]* %9, i64 0, i64 %91
  %93 = load i32, i32* %92, align 4
  %94 = sub nsw i32 %89, %93
  %95 = load i32, i32* %3, align 4
  %96 = sext i32 %95 to i64
  %97 = getelementptr inbounds [10 x i32], [10 x i32]* %9, i64 0, i64 %96
  %98 = load i32, i32* %97, align 4
  %99 = load i32, i32* %6, align 4
  %100 = sext i32 %99 to i64
  %101 = getelementptr inbounds [10 x i32], [10 x i32]* %9, i64 0, i64 %100
  %102 = load i32, i32* %101, align 4
  %103 = sub nsw i32 %98, %102
  %104 = mul nsw i32 %94, %103
  %105 = add nsw i32 %85, %104
  %106 = sitofp i32 %105 to double
  %107 = call double @sqrt(double %106) #3
  %108 = load i32, i32* %5, align 4
  %109 = sext i32 %108 to i64
  %110 = getelementptr inbounds [45 x double], [45 x double]* %10, i64 0, i64 %109
  store double %107, double* %110, align 8
  %111 = load i32, i32* %3, align 4
  %112 = load i32, i32* %5, align 4
  %113 = sext i32 %112 to i64
  %114 = getelementptr inbounds [45 x i32], [45 x i32]* %12, i64 0, i64 %113
  store i32 %111, i32* %114, align 4
  %115 = load i32, i32* %6, align 4
  %116 = load i32, i32* %5, align 4
  %117 = sext i32 %116 to i64
  %118 = getelementptr inbounds [45 x i32], [45 x i32]* %13, i64 0, i64 %117
  store i32 %115, i32* %118, align 4
  %119 = load i32, i32* %5, align 4
  %120 = add nsw i32 %119, 1
  store i32 %120, i32* %5, align 4
  br label %121

121:                                              ; preds = %46
  %122 = load i32, i32* %6, align 4
  %123 = add nsw i32 %122, 1
  store i32 %123, i32* %6, align 4
  br label %42

124:                                              ; preds = %42
  br label %125

125:                                              ; preds = %124
  %126 = load i32, i32* %3, align 4
  %127 = add nsw i32 %126, 1
  store i32 %127, i32* %3, align 4
  br label %34

128:                                              ; preds = %34
  %129 = load i32, i32* %5, align 4
  %130 = sub nsw i32 %129, 1
  store i32 %130, i32* %5, align 4
  store i32 1, i32* %6, align 4
  br label %131

131:                                              ; preds = %211, %128
  %132 = load i32, i32* %6, align 4
  %133 = load i32, i32* %5, align 4
  %134 = sub nsw i32 %133, 1
  %135 = icmp sle i32 %132, %134
  br i1 %135, label %136, label %214

136:                                              ; preds = %131
  store i32 1, i32* %3, align 4
  br label %137

137:                                              ; preds = %207, %136
  %138 = load i32, i32* %3, align 4
  %139 = load i32, i32* %5, align 4
  %140 = load i32, i32* %6, align 4
  %141 = sub nsw i32 %139, %140
  %142 = icmp sle i32 %138, %141
  br i1 %142, label %143, label %210

143:                                              ; preds = %137
  %144 = load i32, i32* %3, align 4
  %145 = sext i32 %144 to i64
  %146 = getelementptr inbounds [45 x double], [45 x double]* %10, i64 0, i64 %145
  %147 = load double, double* %146, align 8
  %148 = load i32, i32* %3, align 4
  %149 = add nsw i32 %148, 1
  %150 = sext i32 %149 to i64
  %151 = getelementptr inbounds [45 x double], [45 x double]* %10, i64 0, i64 %150
  %152 = load double, double* %151, align 8
  %153 = fcmp olt double %147, %152
  br i1 %153, label %154, label %206

154:                                              ; preds = %143
  %155 = load i32, i32* %3, align 4
  %156 = sext i32 %155 to i64
  %157 = getelementptr inbounds [45 x double], [45 x double]* %10, i64 0, i64 %156
  %158 = load double, double* %157, align 8
  store double %158, double* %11, align 8
  %159 = load i32, i32* %3, align 4
  %160 = add nsw i32 %159, 1
  %161 = sext i32 %160 to i64
  %162 = getelementptr inbounds [45 x double], [45 x double]* %10, i64 0, i64 %161
  %163 = load double, double* %162, align 8
  %164 = load i32, i32* %3, align 4
  %165 = sext i32 %164 to i64
  %166 = getelementptr inbounds [45 x double], [45 x double]* %10, i64 0, i64 %165
  store double %163, double* %166, align 8
  %167 = load double, double* %11, align 8
  %168 = load i32, i32* %3, align 4
  %169 = add nsw i32 %168, 1
  %170 = sext i32 %169 to i64
  %171 = getelementptr inbounds [45 x double], [45 x double]* %10, i64 0, i64 %170
  store double %167, double* %171, align 8
  %172 = load i32, i32* %3, align 4
  %173 = sext i32 %172 to i64
  %174 = getelementptr inbounds [45 x i32], [45 x i32]* %12, i64 0, i64 %173
  %175 = load i32, i32* %174, align 4
  store i32 %175, i32* %4, align 4
  %176 = load i32, i32* %3, align 4
  %177 = add nsw i32 %176, 1
  %178 = sext i32 %177 to i64
  %179 = getelementptr inbounds [45 x i32], [45 x i32]* %12, i64 0, i64 %178
  %180 = load i32, i32* %179, align 4
  %181 = load i32, i32* %3, align 4
  %182 = sext i32 %181 to i64
  %183 = getelementptr inbounds [45 x i32], [45 x i32]* %12, i64 0, i64 %182
  store i32 %180, i32* %183, align 4
  %184 = load i32, i32* %4, align 4
  %185 = load i32, i32* %3, align 4
  %186 = add nsw i32 %185, 1
  %187 = sext i32 %186 to i64
  %188 = getelementptr inbounds [45 x i32], [45 x i32]* %12, i64 0, i64 %187
  store i32 %184, i32* %188, align 4
  %189 = load i32, i32* %3, align 4
  %190 = sext i32 %189 to i64
  %191 = getelementptr inbounds [45 x i32], [45 x i32]* %13, i64 0, i64 %190
  %192 = load i32, i32* %191, align 4
  store i32 %192, i32* %4, align 4
  %193 = load i32, i32* %3, align 4
  %194 = add nsw i32 %193, 1
  %195 = sext i32 %194 to i64
  %196 = getelementptr inbounds [45 x i32], [45 x i32]* %13, i64 0, i64 %195
  %197 = load i32, i32* %196, align 4
  %198 = load i32, i32* %3, align 4
  %199 = sext i32 %198 to i64
  %200 = getelementptr inbounds [45 x i32], [45 x i32]* %13, i64 0, i64 %199
  store i32 %197, i32* %200, align 4
  %201 = load i32, i32* %4, align 4
  %202 = load i32, i32* %3, align 4
  %203 = add nsw i32 %202, 1
  %204 = sext i32 %203 to i64
  %205 = getelementptr inbounds [45 x i32], [45 x i32]* %13, i64 0, i64 %204
  store i32 %201, i32* %205, align 4
  br label %206

206:                                              ; preds = %154, %143
  br label %207

207:                                              ; preds = %206
  %208 = load i32, i32* %3, align 4
  %209 = add nsw i32 %208, 1
  store i32 %209, i32* %3, align 4
  br label %137

210:                                              ; preds = %137
  br label %211

211:                                              ; preds = %210
  %212 = load i32, i32* %6, align 4
  %213 = add nsw i32 %212, 1
  store i32 %213, i32* %6, align 4
  br label %131

214:                                              ; preds = %131
  store i32 1, i32* %6, align 4
  br label %215

215:                                              ; preds = %267, %214
  %216 = load i32, i32* %6, align 4
  %217 = load i32, i32* %5, align 4
  %218 = icmp sle i32 %216, %217
  br i1 %218, label %219, label %270

219:                                              ; preds = %215
  %220 = load i32, i32* %6, align 4
  %221 = sext i32 %220 to i64
  %222 = getelementptr inbounds [45 x i32], [45 x i32]* %12, i64 0, i64 %221
  %223 = load i32, i32* %222, align 4
  %224 = sext i32 %223 to i64
  %225 = getelementptr inbounds [10 x i32], [10 x i32]* %7, i64 0, i64 %224
  %226 = load i32, i32* %225, align 4
  %227 = load i32, i32* %6, align 4
  %228 = sext i32 %227 to i64
  %229 = getelementptr inbounds [45 x i32], [45 x i32]* %12, i64 0, i64 %228
  %230 = load i32, i32* %229, align 4
  %231 = sext i32 %230 to i64
  %232 = getelementptr inbounds [10 x i32], [10 x i32]* %8, i64 0, i64 %231
  %233 = load i32, i32* %232, align 4
  %234 = load i32, i32* %6, align 4
  %235 = sext i32 %234 to i64
  %236 = getelementptr inbounds [45 x i32], [45 x i32]* %12, i64 0, i64 %235
  %237 = load i32, i32* %236, align 4
  %238 = sext i32 %237 to i64
  %239 = getelementptr inbounds [10 x i32], [10 x i32]* %9, i64 0, i64 %238
  %240 = load i32, i32* %239, align 4
  %241 = load i32, i32* %6, align 4
  %242 = sext i32 %241 to i64
  %243 = getelementptr inbounds [45 x i32], [45 x i32]* %13, i64 0, i64 %242
  %244 = load i32, i32* %243, align 4
  %245 = sext i32 %244 to i64
  %246 = getelementptr inbounds [10 x i32], [10 x i32]* %7, i64 0, i64 %245
  %247 = load i32, i32* %246, align 4
  %248 = load i32, i32* %6, align 4
  %249 = sext i32 %248 to i64
  %250 = getelementptr inbounds [45 x i32], [45 x i32]* %13, i64 0, i64 %249
  %251 = load i32, i32* %250, align 4
  %252 = sext i32 %251 to i64
  %253 = getelementptr inbounds [10 x i32], [10 x i32]* %8, i64 0, i64 %252
  %254 = load i32, i32* %253, align 4
  %255 = load i32, i32* %6, align 4
  %256 = sext i32 %255 to i64
  %257 = getelementptr inbounds [45 x i32], [45 x i32]* %13, i64 0, i64 %256
  %258 = load i32, i32* %257, align 4
  %259 = sext i32 %258 to i64
  %260 = getelementptr inbounds [10 x i32], [10 x i32]* %9, i64 0, i64 %259
  %261 = load i32, i32* %260, align 4
  %262 = load i32, i32* %6, align 4
  %263 = sext i32 %262 to i64
  %264 = getelementptr inbounds [45 x double], [45 x double]* %10, i64 0, i64 %263
  %265 = load double, double* %264, align 8
  %266 = call i32 (i8*, ...) @printf(i8* getelementptr inbounds ([29 x i8], [29 x i8]* @.str.2, i64 0, i64 0), i32 %226, i32 %233, i32 %240, i32 %247, i32 %254, i32 %261, double %265)
  br label %267

267:                                              ; preds = %219
  %268 = load i32, i32* %6, align 4
  %269 = add nsw i32 %268, 1
  store i32 %269, i32* %6, align 4
  br label %215

270:                                              ; preds = %215
  ret i32 0
}

declare dso_local i32 @__isoc99_scanf(i8*, ...) #1

; Function Attrs: nounwind
declare dso_local double @sqrt(double) #2

declare dso_local i32 @printf(i8*, ...) #1


!llvm.module.flags = !{!0}
!llvm.ident = !{!1}

!0 = !{i32 1, !"wchar_size", i32 4}
!1 = !{!"clang version 10.0.0-4ubuntu1 "}
